target datalayout = "e-m:e-p270:32:32-p271:32:32-p272:64:64-i64:64-i128:128-f80:128-n8:16:32:64-S128"
target triple = "x86_64-pc-linux-gnu"

%struct.FWCfgState = type { %struct.SysBusDevice, i16, [2 x ptr], ptr, ptr, i16, i32, %struct.Notifier, i32, i8, i64, ptr, %struct.MemoryRegion, i8, i64, i64, i64 }
%struct.SysBusDevice = type { %struct.DeviceState, i32, [32 x %struct.anon], i32, [32 x i32] }
%struct.DeviceState = type { %struct.Object, ptr, ptr, i8, i8, i64, i32, i8, ptr, %struct.NamedGPIOListHead, %struct.NamedClockListHead, %struct.BusStateHead, i32, i32, i32, %struct.ResettableState, ptr, %struct.MemReentrancyGuard }
%struct.Object = type { ptr, ptr, ptr, i32, ptr }
%struct.NamedGPIOListHead = type { ptr }
%struct.NamedClockListHead = type { ptr }
%struct.BusStateHead = type { ptr }
%struct.ResettableState = type { i32, i8, i8 }
%struct.MemReentrancyGuard = type { i8 }
%struct.anon = type { i64, ptr }
%struct.Notifier = type { ptr, %struct.anon.0 }
%struct.anon.0 = type { ptr, ptr }
%struct.MemoryRegion = type { %struct.Object, i8, i8, i8, i8, i8, i8, i8, i8, i8, i8, ptr, ptr, ptr, ptr, ptr, ptr, i32, i128, i64, ptr, i64, i8, i8, i8, i8, ptr, i64, i32, %union.anon, %union.anon.1, %union.anon.2, ptr, i32, ptr, ptr, i8 }
%union.anon = type { %struct.QTailQLink }
%struct.QTailQLink = type { ptr, ptr }
%union.anon.1 = type { %struct.QTailQLink }
%union.anon.2 = type { %struct.QTailQLink }

@.str.1 = private unnamed_addr constant [26 x i8] c"../qemu/hw/nvram/fw_cfg.c\00", align 1
@__func__.fw_cfg_file_slots_allocate = private unnamed_addr constant [27 x i8] c"fw_cfg_file_slots_allocate\00", align 1
@.str.115 = private unnamed_addr constant [35 x i8] c"\22file_slots\22 must be at least 0x%x\00", align 1
@.str.116 = private unnamed_addr constant [34 x i8] c"\22file_slots\22 must not exceed 0x%x\00", align 1

; Function Attrs: inlinehint nounwind sspstrong uwtable
define internal i32 @fw_cfg_max_entry(ptr noundef %0) #2 {
  %2 = alloca ptr, align 8
  store ptr %0, ptr %2, align 8
  %3 = load ptr, ptr %2, align 8
  %4 = call zeroext i16 @fw_cfg_file_slots(ptr noundef %3)
  %5 = zext i16 %4 to i32
  %6 = add i32 32, %5
  ret i32 %6
}

; Function Attrs: inlinehint nounwind sspstrong uwtable
define internal zeroext i16 @fw_cfg_file_slots(ptr noundef %0) #2 {
  %2 = alloca ptr, align 8
  store ptr %0, ptr %2, align 8
  %3 = load ptr, ptr %2, align 8
  %4 = getelementptr inbounds nuw %struct.FWCfgState, ptr %3, i32 0, i32 1
  %5 = load i16, ptr %4, align 8
  ret i16 %5
}

; Function Attrs: nounwind sspstrong uwtable
define internal void @fw_cfg_file_slots_allocate(ptr noundef %0, ptr noundef %1) #0 {
  %3 = alloca ptr, align 8
  %4 = alloca ptr, align 8
  %5 = alloca i16, align 2
  %6 = alloca i32, align 4
  %7 = alloca i64, align 8
  %8 = alloca i64, align 8
  %9 = alloca ptr, align 8
  %10 = alloca ptr, align 8
  %11 = alloca i64, align 8
  %12 = alloca i64, align 8
  %13 = alloca ptr, align 8
  %14 = alloca ptr, align 8
  %15 = alloca i64, align 8
  %16 = alloca i64, align 8
  %17 = alloca ptr, align 8
  %18 = alloca ptr, align 8
  store ptr %0, ptr %3, align 8
  store ptr %1, ptr %4, align 8
  call void @llvm.lifetime.start.p0(i64 2, ptr %5) #18
  store i16 0, ptr %5, align 2, !annotation !6
  %19 = load ptr, ptr %3, align 8
  %20 = call zeroext i16 @fw_cfg_file_slots(ptr noundef %19)
  %21 = zext i16 %20 to i32
  %22 = icmp slt i32 %21, 16
  br i1 %22, label %23, label %25

23:                                               ; preds = %2
  %24 = load ptr, ptr %4, align 8
  call void (ptr, ptr, i32, ptr, ptr, ...) @error_setg_internal(ptr noundef %24, ptr noundef @.str.1, i32 noundef 1255, ptr noundef @__func__.fw_cfg_file_slots_allocate, ptr noundef @.str.115, i32 noundef 16)
  store i32 1, ptr %6, align 4
  br label %141

25:                                               ; preds = %2
  store i16 16352, ptr %5, align 2
  %26 = load ptr, ptr %3, align 8
  %27 = call zeroext i16 @fw_cfg_file_slots(ptr noundef %26)
  %28 = zext i16 %27 to i32
  %29 = load i16, ptr %5, align 2
  %30 = zext i16 %29 to i32
  %31 = icmp sgt i32 %28, %30
  br i1 %31, label %32, label %36

32:                                               ; preds = %25
  %33 = load ptr, ptr %4, align 8
  %34 = load i16, ptr %5, align 2
  %35 = zext i16 %34 to i32
  call void (ptr, ptr, i32, ptr, ptr, ...) @error_setg_internal(ptr noundef %33, ptr noundef @.str.1, i32 noundef 1265, ptr noundef @__func__.fw_cfg_file_slots_allocate, ptr noundef @.str.116, i32 noundef %35)
  store i32 1, ptr %6, align 4
  br label %141

36:                                               ; preds = %25
  call void @llvm.lifetime.start.p0(i64 8, ptr %7) #18
  %37 = load ptr, ptr %3, align 8
  %38 = call i32 @fw_cfg_max_entry(ptr noundef %37)
  %39 = zext i32 %38 to i64
  store i64 %39, ptr %7, align 8
  call void @llvm.lifetime.start.p0(i64 8, ptr %8) #18
  store i64 40, ptr %8, align 8
  call void @llvm.lifetime.start.p0(i64 8, ptr %9) #18
  store ptr null, ptr %9, align 8, !annotation !6
  %40 = load i64, ptr %8, align 8
  %41 = icmp eq i64 %40, 1
  br i1 %41, label %42, label %45

42:                                               ; preds = %36
  %43 = load i64, ptr %7, align 8
  %44 = call noalias ptr @g_malloc0(i64 noundef %43) #22
  store ptr %44, ptr %9, align 8
  br label %66

45:                                               ; preds = %36
  %46 = load i64, ptr %7, align 8
  %47 = call i1 @llvm.is.constant.i64(i64 %46)
  br i1 %47, label %48, label %61

48:                                               ; preds = %45
  %49 = load i64, ptr %8, align 8
  %50 = icmp eq i64 %49, 0
  br i1 %50, label %56, label %51

51:                                               ; preds = %48
  %52 = load i64, ptr %7, align 8
  %53 = load i64, ptr %8, align 8
  %54 = udiv i64 -1, %53
  %55 = icmp ule i64 %52, %54
  br i1 %55, label %56, label %61

56:                                               ; preds = %51, %48
  %57 = load i64, ptr %7, align 8
  %58 = load i64, ptr %8, align 8
  %59 = mul i64 %57, %58
  %60 = call noalias ptr @g_malloc0(i64 noundef %59) #22
  store ptr %60, ptr %9, align 8
  br label %65

61:                                               ; preds = %51, %45
  %62 = load i64, ptr %7, align 8
  %63 = load i64, ptr %8, align 8
  %64 = call noalias ptr @g_malloc0_n(i64 noundef %62, i64 noundef %63) #25
  store ptr %64, ptr %9, align 8
  br label %65

65:                                               ; preds = %61, %56
  br label %66

66:                                               ; preds = %65, %42
  %67 = load ptr, ptr %9, align 8
  store ptr %67, ptr %10, align 8
  call void @llvm.lifetime.end.p0(i64 8, ptr %9) #18
  call void @llvm.lifetime.end.p0(i64 8, ptr %8) #18
  call void @llvm.lifetime.end.p0(i64 8, ptr %7) #18
  %68 = load ptr, ptr %10, align 8
  %69 = load ptr, ptr %3, align 8
  %70 = getelementptr inbounds nuw %struct.FWCfgState, ptr %69, i32 0, i32 2
  %71 = getelementptr inbounds [2 x ptr], ptr %70, i64 0, i64 0
  store ptr %68, ptr %71, align 16
  call void @llvm.lifetime.start.p0(i64 8, ptr %11) #18
  %72 = load ptr, ptr %3, align 8
  %73 = call i32 @fw_cfg_max_entry(ptr noundef %72)
  %74 = zext i32 %73 to i64
  store i64 %74, ptr %11, align 8
  call void @llvm.lifetime.start.p0(i64 8, ptr %12) #18
  store i64 40, ptr %12, align 8
  call void @llvm.lifetime.start.p0(i64 8, ptr %13) #18
  store ptr null, ptr %13, align 8, !annotation !6
  %75 = load i64, ptr %12, align 8
  %76 = icmp eq i64 %75, 1
  br i1 %76, label %77, label %80

77:                                               ; preds = %66
  %78 = load i64, ptr %11, align 8
  %79 = call noalias ptr @g_malloc0(i64 noundef %78) #22
  store ptr %79, ptr %13, align 8
  br label %101

80:                                               ; preds = %66
  %81 = load i64, ptr %11, align 8
  %82 = call i1 @llvm.is.constant.i64(i64 %81)
  br i1 %82, label %83, label %96

83:                                               ; preds = %80
  %84 = load i64, ptr %12, align 8
  %85 = icmp eq i64 %84, 0
  br i1 %85, label %91, label %86

86:                                               ; preds = %83
  %87 = load i64, ptr %11, align 8
  %88 = load i64, ptr %12, align 8
  %89 = udiv i64 -1, %88
  %90 = icmp ule i64 %87, %89
  br i1 %90, label %91, label %96

91:                                               ; preds = %86, %83
  %92 = load i64, ptr %11, align 8
  %93 = load i64, ptr %12, align 8
  %94 = mul i64 %92, %93
  %95 = call noalias ptr @g_malloc0(i64 noundef %94) #22
  store ptr %95, ptr %13, align 8
  br label %100

96:                                               ; preds = %86, %80
  %97 = load i64, ptr %11, align 8
  %98 = load i64, ptr %12, align 8
  %99 = call noalias ptr @g_malloc0_n(i64 noundef %97, i64 noundef %98) #25
  store ptr %99, ptr %13, align 8
  br label %100

100:                                              ; preds = %96, %91
  br label %101

101:                                              ; preds = %100, %77
  %102 = load ptr, ptr %13, align 8
  store ptr %102, ptr %14, align 8
  call void @llvm.lifetime.end.p0(i64 8, ptr %13) #18
  call void @llvm.lifetime.end.p0(i64 8, ptr %12) #18
  call void @llvm.lifetime.end.p0(i64 8, ptr %11) #18
  %103 = load ptr, ptr %14, align 8
  %104 = load ptr, ptr %3, align 8
  %105 = getelementptr inbounds nuw %struct.FWCfgState, ptr %104, i32 0, i32 2
  %106 = getelementptr inbounds [2 x ptr], ptr %105, i64 0, i64 1
  store ptr %103, ptr %106, align 8
  call void @llvm.lifetime.start.p0(i64 8, ptr %15) #18
  %107 = load ptr, ptr %3, align 8
  %108 = call i32 @fw_cfg_max_entry(ptr noundef %107)
  %109 = zext i32 %108 to i64
  store i64 %109, ptr %15, align 8
  call void @llvm.lifetime.start.p0(i64 8, ptr %16) #18
  store i64 4, ptr %16, align 8
  call void @llvm.lifetime.start.p0(i64 8, ptr %17) #18
  store ptr null, ptr %17, align 8, !annotation !6
  %110 = load i64, ptr %16, align 8
  %111 = icmp eq i64 %110, 1
  br i1 %111, label %112, label %115

112:                                              ; preds = %101
  %113 = load i64, ptr %15, align 8
  %114 = call noalias ptr @g_malloc0(i64 noundef %113) #22
  store ptr %114, ptr %17, align 8
  br label %136

115:                                              ; preds = %101
  %116 = load i64, ptr %15, align 8
  %117 = call i1 @llvm.is.constant.i64(i64 %116)
  br i1 %117, label %118, label %131

118:                                              ; preds = %115
  %119 = load i64, ptr %16, align 8
  %120 = icmp eq i64 %119, 0
  br i1 %120, label %126, label %121

121:                                              ; preds = %118
  %122 = load i64, ptr %15, align 8
  %123 = load i64, ptr %16, align 8
  %124 = udiv i64 -1, %123
  %125 = icmp ule i64 %122, %124
  br i1 %125, label %126, label %131

126:                                              ; preds = %121, %118
  %127 = load i64, ptr %15, align 8
  %128 = load i64, ptr %16, align 8
  %129 = mul i64 %127, %128
  %130 = call noalias ptr @g_malloc0(i64 noundef %129) #22
  store ptr %130, ptr %17, align 8
  br label %135

131:                                              ; preds = %121, %115
  %132 = load i64, ptr %15, align 8
  %133 = load i64, ptr %16, align 8
  %134 = call noalias ptr @g_malloc0_n(i64 noundef %132, i64 noundef %133) #25
  store ptr %134, ptr %17, align 8
  br label %135

135:                                              ; preds = %131, %126
  br label %136

136:                                              ; preds = %135, %112
  %137 = load ptr, ptr %17, align 8
  store ptr %137, ptr %18, align 8
  call void @llvm.lifetime.end.p0(i64 8, ptr %17) #18
  call void @llvm.lifetime.end.p0(i64 8, ptr %16) #18
  call void @llvm.lifetime.end.p0(i64 8, ptr %15) #18
  %138 = load ptr, ptr %18, align 8
  %139 = load ptr, ptr %3, align 8
  %140 = getelementptr inbounds nuw %struct.FWCfgState, ptr %139, i32 0, i32 3
  store ptr %138, ptr %140, align 16
  store i32 0, ptr %6, align 4
  br label %141

141:                                              ; preds = %136, %32, %23
  call void @llvm.lifetime.end.p0(i64 2, ptr %5) #18
  %142 = load i32, ptr %6, align 4
  switch i32 %142, label %144 [
    i32 0, label %143
    i32 1, label %143
  ]

143:                                              ; preds = %141, %141
  ret void

144:                                              ; preds = %141
  unreachable
}