; Function Attrs: nounwind sspstrong uwtable
define internal fastcc void @fw_cfg_file_slots_allocate(ptr noundef captures(none) %0, ptr noundef %1) unnamed_addr #2 {
  %3 = getelementptr i8, ptr %0, i64 808
  %.val49 = load i16, ptr %3, align 8
  %4 = icmp ult i16 %.val49, 16
  br i1 %4, label %5, label %6

5:                                                ; preds = %2
  tail call void (ptr, ptr, i32, ptr, ptr, ...) @error_setg_internal(ptr noundef %1, ptr noundef nonnull @.str.1, i32 noundef 1255, ptr noundef nonnull @__func__.fw_cfg_file_slots_allocate, ptr noundef nonnull @.str.115, i32 noundef 16) #18
  br label %21

6:                                                ; preds = %2
  %7 = icmp ugt i16 %.val49, 16352
  br i1 %7, label %8, label %9

8:                                                ; preds = %6
  tail call void (ptr, ptr, i32, ptr, ptr, ...) @error_setg_internal(ptr noundef %1, ptr noundef nonnull @.str.1, i32 noundef 1265, ptr noundef nonnull @__func__.fw_cfg_file_slots_allocate, ptr noundef nonnull @.str.116, i32 noundef 16352) #18
  br label %21

9:                                                ; preds = %6
  %narrow = add nuw nsw i16 %.val49, 32
  %10 = zext nneg i16 %narrow to i64
  %11 = tail call noalias ptr @g_malloc0_n(i64 noundef %10, i64 noundef 40) #25
  %12 = getelementptr inbounds nuw i8, ptr %0, i64 816
  store ptr %11, ptr %12, align 16
  %.val51 = load i16, ptr %3, align 8
  %13 = zext i16 %.val51 to i64
  %14 = add nuw nsw i64 %13, 32
  %15 = tail call noalias ptr @g_malloc0_n(i64 noundef %14, i64 noundef 40) #25
  %16 = getelementptr inbounds nuw i8, ptr %0, i64 824
  store ptr %15, ptr %16, align 8
  %.val50 = load i16, ptr %3, align 8
  %17 = zext i16 %.val50 to i64
  %18 = add nuw nsw i64 %17, 32
  %19 = tail call noalias ptr @g_malloc0_n(i64 noundef %18, i64 noundef 4) #25
  %20 = getelementptr inbounds nuw i8, ptr %0, i64 832
  store ptr %19, ptr %20, align 16
  br label %21

21:                                               ; preds = %9, %8, %5
  ret void
}